target datalayout = "e-m:e-p270:32:32-p271:32:32-p272:64:64-i64:64-i128:128-f80:128-n8:16:32:64-S128"
target triple = "x86_64-pc-linux-gnu"

%union.pthread_mutex_t = type { %struct.__pthread_mutex_s }
%struct.__pthread_mutex_s = type { i32, i32, i32, i32, i32, i16, i16, %struct.__pthread_internal_list }
%struct.__pthread_internal_list = type { ptr, ptr }
%struct.node_record = type { ptr, ptr, i16, i64, i64, ptr, ptr, ptr, i16, ptr, i16, i16, i32, i32, i64, ptr, i16, i16, ptr, ptr, ptr, ptr, ptr, i64, i64, ptr, ptr, ptr, ptr, i32, ptr, ptr, i64, i64, i32, ptr, i64, ptr, i32, i16, ptr, ptr, i32, ptr, i32, i8, ptr, i32, i16, i16, ptr, i16, i64, i16, i64, ptr, i64, i32, i16, i64, i16, ptr, i16, i64, ptr, i64, i16, i32, i16, ptr, ptr, ptr, i16, i32, i16, i16, i32, ptr, i16, i32 }

@trigger_up_nodes_bitmap = dso_local global ptr null, align 8
@trigger_mutex = internal global %union.pthread_mutex_t zeroinitializer, align 8
@.str.2 = private unnamed_addr constant [29 x i8] c"%s: pthread_mutex_lock(): %m\00", align 1
@.str.3 = private unnamed_addr constant [31 x i8] c"%s: pthread_mutex_unlock(): %m\00", align 1
@node_record_count = external global i32, align 4
@__func__.trigger_node_up = private unnamed_addr constant [16 x i8] c"trigger_node_up\00", align 1

; Function Attrs: nounwind uwtable
define dso_local void @trigger_node_up(ptr noundef %0) #0 {
  %2 = alloca ptr, align 8
  %3 = alloca i32, align 4
  %4 = alloca i32, align 4
  store ptr %0, ptr %2, align 8
  br label %5

5:                                                ; preds = %1
  call void @llvm.lifetime.start.p0(i64 4, ptr %3) #10
  %6 = call i32 @pthread_mutex_lock(ptr noundef @trigger_mutex) #10
  store i32 %6, ptr %3, align 4
  %7 = load i32, ptr %3, align 4
  %8 = icmp ne i32 %7, 0
  br i1 %8, label %9, label %12

9:                                                ; preds = %5
  %10 = load i32, ptr %3, align 4
  %11 = call ptr @__errno_location() #11
  store i32 %10, ptr %11, align 4
  call void (ptr, ...) @fatal_abort(ptr noundef @.str.2, ptr noundef @__func__.trigger_node_up) #12
  unreachable

12:                                               ; preds = %5
  call void @llvm.lifetime.end.p0(i64 4, ptr %3) #10
  br label %13

13:                                               ; preds = %12
  %14 = load ptr, ptr @trigger_up_nodes_bitmap, align 8
  %15 = icmp eq ptr %14, null
  br i1 %15, label %16, label %20

16:                                               ; preds = %13
  %17 = load i32, ptr @node_record_count, align 4
  %18 = sext i32 %17 to i64
  %19 = call ptr @bit_alloc(i64 noundef %18)
  store ptr %19, ptr @trigger_up_nodes_bitmap, align 8
  br label %20

20:                                               ; preds = %16, %13
  %21 = load ptr, ptr @trigger_up_nodes_bitmap, align 8
  %22 = load ptr, ptr %2, align 8
  %23 = getelementptr inbounds nuw %struct.node_record, ptr %22, i32 0, i32 29
  %24 = load i32, ptr %23, align 8
  %25 = zext i32 %24 to i64
  call void @bit_set(ptr noundef %21, i64 noundef %25)
  br label %26

26:                                               ; preds = %20
  call void @llvm.lifetime.start.p0(i64 4, ptr %4) #10
  %27 = call i32 @pthread_mutex_unlock(ptr noundef @trigger_mutex) #10
  store i32 %27, ptr %4, align 4
  %28 = load i32, ptr %4, align 4
  %29 = icmp ne i32 %28, 0
  br i1 %29, label %30, label %33

30:                                               ; preds = %26
  %31 = load i32, ptr %4, align 4
  %32 = call ptr @__errno_location() #11
  store i32 %31, ptr %32, align 4
  call void (ptr, ...) @fatal_abort(ptr noundef @.str.3, ptr noundef @__func__.trigger_node_up) #12
  unreachable

33:                                               ; preds = %26
  call void @llvm.lifetime.end.p0(i64 4, ptr %4) #10
  br label %34

34:                                               ; preds = %33
  ret void
}