; Function Attrs: nounwind uwtable
define dso_local void @trigger_node_up(ptr noundef readonly captures(none) %0) local_unnamed_addr #0 {
  %2 = tail call i32 @pthread_mutex_lock(ptr noundef nonnull @trigger_mutex) #12
  %.not = icmp eq i32 %2, 0
  br i1 %.not, label %5, label %3

3:                                                ; preds = %1
  %4 = tail call ptr @__errno_location() #13
  store i32 %2, ptr %4, align 4
  tail call void (ptr, ...) @fatal_abort(ptr noundef nonnull @.str.2, ptr noundef nonnull @__func__.trigger_node_up) #14
  unreachable

5:                                                ; preds = %1
  %6 = load ptr, ptr @trigger_up_nodes_bitmap, align 8
  %7 = icmp eq ptr %6, null
  br i1 %7, label %8, label %12

8:                                                ; preds = %5
  %9 = load i32, ptr @node_record_count, align 4
  %10 = sext i32 %9 to i64
  %11 = tail call ptr @bit_alloc(i64 noundef %10) #12
  store ptr %11, ptr @trigger_up_nodes_bitmap, align 8
  br label %12

12:                                               ; preds = %8, %5
  %13 = phi ptr [ %11, %8 ], [ %6, %5 ]
  %14 = getelementptr inbounds nuw i8, ptr %0, i64 208
  %15 = load i32, ptr %14, align 8
  %16 = zext i32 %15 to i64
  tail call void @bit_set(ptr noundef %13, i64 noundef %16) #12
  %17 = tail call i32 @pthread_mutex_unlock(ptr noundef nonnull @trigger_mutex) #12
  %.not5 = icmp eq i32 %17, 0
  br i1 %.not5, label %20, label %18

18:                                               ; preds = %12
  %19 = tail call ptr @__errno_location() #13
  store i32 %17, ptr %19, align 4
  tail call void (ptr, ...) @fatal_abort(ptr noundef nonnull @.str.3, ptr noundef nonnull @__func__.trigger_node_up) #14
  unreachable

20:                                               ; preds = %12
  ret void
}